target datalayout = "e-m:e-p270:32:32-p271:32:32-p272:64:64-i64:64-i128:128-f80:128-n8:16:32:64-S128"
target triple = "x86_64-pc-linux-gnu"

%struct.HeadlineParsedText = type { ptr, i32, i32, i32, ptr, ptr, ptr, i16, i16, i16 }
%struct.HeadlineWordEntry = type { i32, i16, ptr, ptr }
%struct.anon = type { i32, [0 x i8] }

; Function Attrs: nounwind uwtable
define dso_local ptr @generateHeadline(ptr noundef %0) #0 {
  %2 = alloca ptr, align 8
  %3 = alloca ptr, align 8
  %4 = alloca ptr, align 8
  %5 = alloca i32, align 4
  %6 = alloca i32, align 4
  %7 = alloca i16, align 2
  %8 = alloca ptr, align 8
  %9 = alloca i32, align 4
  store ptr %0, ptr %2, align 8
  call void @llvm.lifetime.start.p0(i64 8, ptr %3) #8
  call void @llvm.lifetime.start.p0(i64 8, ptr %4) #8
  call void @llvm.lifetime.start.p0(i64 4, ptr %5) #8
  store i32 128, ptr %5, align 4
  call void @llvm.lifetime.start.p0(i64 4, ptr %6) #8
  store i32 0, ptr %6, align 4
  call void @llvm.lifetime.start.p0(i64 2, ptr %7) #8
  store i16 0, ptr %7, align 2
  call void @llvm.lifetime.start.p0(i64 8, ptr %8) #8
  %10 = load ptr, ptr %2, align 8
  %11 = getelementptr inbounds nuw %struct.HeadlineParsedText, ptr %10, i32 0, i32 0
  %12 = load ptr, ptr %11, align 8
  store ptr %12, ptr %8, align 8
  %13 = load i32, ptr %5, align 4
  %14 = sext i32 %13 to i64
  %15 = call ptr @palloc(i64 noundef %14)
  store ptr %15, ptr %3, align 8
  %16 = load ptr, ptr %3, align 8
  %17 = getelementptr inbounds i8, ptr %16, i64 4
  store ptr %17, ptr %4, align 8
  br label %18

18:                                               ; preds = %206, %1
  %19 = load ptr, ptr %8, align 8
  %20 = load ptr, ptr %2, align 8
  %21 = getelementptr inbounds nuw %struct.HeadlineParsedText, ptr %20, i32 0, i32 0
  %22 = load ptr, ptr %21, align 8
  %23 = ptrtoint ptr %19 to i64
  %24 = ptrtoint ptr %22 to i64
  %25 = sub i64 %23, %24
  %26 = sdiv exact i64 %25, 24
  %27 = load ptr, ptr %2, align 8
  %28 = getelementptr inbounds nuw %struct.HeadlineParsedText, ptr %27, i32 0, i32 2
  %29 = load i32, ptr %28, align 4
  %30 = sext i32 %29 to i64
  %31 = icmp slt i64 %26, %30
  br i1 %31, label %32, label %209

32:                                               ; preds = %18
  br label %33

33:                                               ; preds = %62, %32
  %34 = load ptr, ptr %8, align 8
  %35 = load i32, ptr %34, align 8
  %36 = lshr i32 %35, 16
  %37 = load ptr, ptr %2, align 8
  %38 = getelementptr inbounds nuw %struct.HeadlineParsedText, ptr %37, i32 0, i32 8
  %39 = load i16, ptr %38, align 2
  %40 = sext i16 %39 to i32
  %41 = add i32 %36, %40
  %42 = load ptr, ptr %2, align 8
  %43 = getelementptr inbounds nuw %struct.HeadlineParsedText, ptr %42, i32 0, i32 7
  %44 = load i16, ptr %43, align 8
  %45 = sext i16 %44 to i32
  %46 = add i32 %41, %45
  %47 = load ptr, ptr %2, align 8
  %48 = getelementptr inbounds nuw %struct.HeadlineParsedText, ptr %47, i32 0, i32 9
  %49 = load i16, ptr %48, align 4
  %50 = sext i16 %49 to i32
  %51 = add i32 %46, %50
  %52 = sext i32 %51 to i64
  %53 = load ptr, ptr %4, align 8
  %54 = load ptr, ptr %3, align 8
  %55 = ptrtoint ptr %53 to i64
  %56 = ptrtoint ptr %54 to i64
  %57 = sub i64 %55, %56
  %58 = add i64 %52, %57
  %59 = load i32, ptr %5, align 4
  %60 = sext i32 %59 to i64
  %61 = icmp sge i64 %58, %60
  br i1 %61, label %62, label %79

62:                                               ; preds = %33
  call void @llvm.lifetime.start.p0(i64 4, ptr %9) #8
  %63 = load ptr, ptr %4, align 8
  %64 = load ptr, ptr %3, align 8
  %65 = ptrtoint ptr %63 to i64
  %66 = ptrtoint ptr %64 to i64
  %67 = sub i64 %65, %66
  %68 = trunc i64 %67 to i32
  store i32 %68, ptr %9, align 4
  %69 = load i32, ptr %5, align 4
  %70 = mul i32 %69, 2
  store i32 %70, ptr %5, align 4
  %71 = load ptr, ptr %3, align 8
  %72 = load i32, ptr %5, align 4
  %73 = sext i32 %72 to i64
  %74 = call ptr @repalloc(ptr noundef %71, i64 noundef %73)
  store ptr %74, ptr %3, align 8
  %75 = load ptr, ptr %3, align 8
  %76 = load i32, ptr %9, align 4
  %77 = sext i32 %76 to i64
  %78 = getelementptr inbounds i8, ptr %75, i64 %77
  store ptr %78, ptr %4, align 8
  call void @llvm.lifetime.end.p0(i64 4, ptr %9) #8
  br label %33, !llvm.loop !19

79:                                               ; preds = %33
  %80 = load ptr, ptr %8, align 8
  %81 = load i32, ptr %80, align 8
  %82 = lshr i32 %81, 1
  %83 = and i32 %82, 1
  %84 = icmp ne i32 %83, 0
  br i1 %84, label %85, label %191

85:                                               ; preds = %79
  %86 = load ptr, ptr %8, align 8
  %87 = load i32, ptr %86, align 8
  %88 = lshr i32 %87, 3
  %89 = and i32 %88, 1
  %90 = icmp ne i32 %89, 0
  br i1 %90, label %191, label %91

91:                                               ; preds = %85
  %92 = load i16, ptr %7, align 2
  %93 = icmp ne i16 %92, 0
  br i1 %93, label %116, label %94

94:                                               ; preds = %91
  store i16 1, ptr %7, align 2
  %95 = load i32, ptr %6, align 4
  %96 = add i32 %95, 1
  store i32 %96, ptr %6, align 4
  %97 = load i32, ptr %6, align 4
  %98 = icmp sgt i32 %97, 1
  br i1 %98, label %99, label %115

99:                                               ; preds = %94
  %100 = load ptr, ptr %4, align 8
  %101 = load ptr, ptr %2, align 8
  %102 = getelementptr inbounds nuw %struct.HeadlineParsedText, ptr %101, i32 0, i32 6
  %103 = load ptr, ptr %102, align 8
  %104 = load ptr, ptr %2, align 8
  %105 = getelementptr inbounds nuw %struct.HeadlineParsedText, ptr %104, i32 0, i32 9
  %106 = load i16, ptr %105, align 4
  %107 = sext i16 %106 to i64
  call void @llvm.memcpy.p0.p0.i64(ptr align 1 %100, ptr align 1 %103, i64 %107, i1 false)
  %108 = load ptr, ptr %2, align 8
  %109 = getelementptr inbounds nuw %struct.HeadlineParsedText, ptr %108, i32 0, i32 9
  %110 = load i16, ptr %109, align 4
  %111 = sext i16 %110 to i32
  %112 = load ptr, ptr %4, align 8
  %113 = sext i32 %111 to i64
  %114 = getelementptr inbounds i8, ptr %112, i64 %113
  store ptr %114, ptr %4, align 8
  br label %115

115:                                              ; preds = %99, %94
  br label %116

116:                                              ; preds = %115, %91
  %117 = load ptr, ptr %8, align 8
  %118 = load i32, ptr %117, align 8
  %119 = lshr i32 %118, 2
  %120 = and i32 %119, 1
  %121 = icmp ne i32 %120, 0
  br i1 %121, label %122, label %126

122:                                              ; preds = %116
  %123 = load ptr, ptr %4, align 8
  store i8 32, ptr %123, align 1
  %124 = load ptr, ptr %4, align 8
  %125 = getelementptr inbounds nuw i8, ptr %124, i32 1
  store ptr %125, ptr %4, align 8
  br label %190

126:                                              ; preds = %116
  %127 = load ptr, ptr %8, align 8
  %128 = load i32, ptr %127, align 8
  %129 = lshr i32 %128, 4
  %130 = and i32 %129, 1
  %131 = icmp ne i32 %130, 0
  br i1 %131, label %189, label %132

132:                                              ; preds = %126
  %133 = load ptr, ptr %8, align 8
  %134 = load i32, ptr %133, align 8
  %135 = and i32 %134, 1
  %136 = icmp ne i32 %135, 0
  br i1 %136, label %137, label %153

137:                                              ; preds = %132
  %138 = load ptr, ptr %4, align 8
  %139 = load ptr, ptr %2, align 8
  %140 = getelementptr inbounds nuw %struct.HeadlineParsedText, ptr %139, i32 0, i32 4
  %141 = load ptr, ptr %140, align 8
  %142 = load ptr, ptr %2, align 8
  %143 = getelementptr inbounds nuw %struct.HeadlineParsedText, ptr %142, i32 0, i32 7
  %144 = load i16, ptr %143, align 8
  %145 = sext i16 %144 to i64
  call void @llvm.memcpy.p0.p0.i64(ptr align 1 %138, ptr align 1 %141, i64 %145, i1 false)
  %146 = load ptr, ptr %2, align 8
  %147 = getelementptr inbounds nuw %struct.HeadlineParsedText, ptr %146, i32 0, i32 7
  %148 = load i16, ptr %147, align 8
  %149 = sext i16 %148 to i32
  %150 = load ptr, ptr %4, align 8
  %151 = sext i32 %149 to i64
  %152 = getelementptr inbounds i8, ptr %150, i64 %151
  store ptr %152, ptr %4, align 8
  br label %153

153:                                              ; preds = %137, %132
  %154 = load ptr, ptr %4, align 8
  %155 = load ptr, ptr %8, align 8
  %156 = getelementptr inbounds nuw %struct.HeadlineWordEntry, ptr %155, i32 0, i32 2
  %157 = load ptr, ptr %156, align 8
  %158 = load ptr, ptr %8, align 8
  %159 = load i32, ptr %158, align 8
  %160 = lshr i32 %159, 16
  %161 = zext i32 %160 to i64
  call void @llvm.memcpy.p0.p0.i64(ptr align 1 %154, ptr align 1 %157, i64 %161, i1 false)
  %162 = load ptr, ptr %8, align 8
  %163 = load i32, ptr %162, align 8
  %164 = lshr i32 %163, 16
  %165 = load ptr, ptr %4, align 8
  %166 = sext i32 %164 to i64
  %167 = getelementptr inbounds i8, ptr %165, i64 %166
  store ptr %167, ptr %4, align 8
  %168 = load ptr, ptr %8, align 8
  %169 = load i32, ptr %168, align 8
  %170 = and i32 %169, 1
  %171 = icmp ne i32 %170, 0
  br i1 %171, label %172, label %188

172:                                              ; preds = %153
  %173 = load ptr, ptr %4, align 8
  %174 = load ptr, ptr %2, align 8
  %175 = getelementptr inbounds nuw %struct.HeadlineParsedText, ptr %174, i32 0, i32 5
  %176 = load ptr, ptr %175, align 8
  %177 = load ptr, ptr %2, align 8
  %178 = getelementptr inbounds nuw %struct.HeadlineParsedText, ptr %177, i32 0, i32 8
  %179 = load i16, ptr %178, align 2
  %180 = sext i16 %179 to i64
  call void @llvm.memcpy.p0.p0.i64(ptr align 1 %173, ptr align 1 %176, i64 %180, i1 false)
  %181 = load ptr, ptr %2, align 8
  %182 = getelementptr inbounds nuw %struct.HeadlineParsedText, ptr %181, i32 0, i32 8
  %183 = load i16, ptr %182, align 2
  %184 = sext i16 %183 to i32
  %185 = load ptr, ptr %4, align 8
  %186 = sext i32 %184 to i64
  %187 = getelementptr inbounds i8, ptr %185, i64 %186
  store ptr %187, ptr %4, align 8
  br label %188

188:                                              ; preds = %172, %153
  br label %189

189:                                              ; preds = %188, %126
  br label %190

190:                                              ; preds = %189, %122
  br label %206

191:                                              ; preds = %85, %79
  %192 = load ptr, ptr %8, align 8
  %193 = load i32, ptr %192, align 8
  %194 = lshr i32 %193, 3
  %195 = and i32 %194, 1
  %196 = icmp ne i32 %195, 0
  br i1 %196, label %205, label %197

197:                                              ; preds = %191
  %198 = load i16, ptr %7, align 2
  %199 = icmp ne i16 %198, 0
  br i1 %199, label %200, label %201

200:                                              ; preds = %197
  store i16 0, ptr %7, align 2
  br label %201

201:                                              ; preds = %200, %197
  %202 = load ptr, ptr %8, align 8
  %203 = getelementptr inbounds nuw %struct.HeadlineWordEntry, ptr %202, i32 0, i32 2
  %204 = load ptr, ptr %203, align 8
  call void @pfree(ptr noundef %204)
  br label %205

205:                                              ; preds = %201, %191
  br label %206

206:                                              ; preds = %205, %190
  %207 = load ptr, ptr %8, align 8
  %208 = getelementptr inbounds nuw %struct.HeadlineWordEntry, ptr %207, i32 1
  store ptr %208, ptr %8, align 8
  br label %18, !llvm.loop !20

209:                                              ; preds = %18
  %210 = load ptr, ptr %4, align 8
  %211 = load ptr, ptr %3, align 8
  %212 = ptrtoint ptr %210 to i64
  %213 = ptrtoint ptr %211 to i64
  %214 = sub i64 %212, %213
  %215 = trunc i64 %214 to i32
  %216 = shl i32 %215, 2
  %217 = load ptr, ptr %3, align 8
  %218 = getelementptr inbounds nuw %struct.anon, ptr %217, i32 0, i32 0
  store i32 %216, ptr %218, align 4
  %219 = load ptr, ptr %3, align 8
  call void @llvm.lifetime.end.p0(i64 8, ptr %8) #8
  call void @llvm.lifetime.end.p0(i64 2, ptr %7) #8
  call void @llvm.lifetime.end.p0(i64 4, ptr %6) #8
  call void @llvm.lifetime.end.p0(i64 4, ptr %5) #8
  call void @llvm.lifetime.end.p0(i64 8, ptr %4) #8
  call void @llvm.lifetime.end.p0(i64 8, ptr %3) #8
  ret ptr %219
}