; Function Attrs: nounwind uwtable
define dso_local noundef ptr @generateHeadline(ptr noundef readonly captures(none) %0) local_unnamed_addr #0 {
  %2 = load ptr, ptr %0, align 8
  %3 = tail call ptr @palloc(i64 noundef 128) #7
  %4 = getelementptr inbounds nuw i8, ptr %3, i64 4
  %5 = getelementptr inbounds nuw i8, ptr %0, i64 12
  %6 = load ptr, ptr %0, align 8
  %7 = ptrtoint ptr %2 to i64
  %8 = ptrtoint ptr %6 to i64
  %9 = sub i64 %7, %8
  %10 = sdiv exact i64 %9, 24
  %11 = load i32, ptr %5, align 4
  %12 = sext i32 %11 to i64
  %13 = icmp slt i64 %10, %12
  br i1 %13, label %.preheader.lr.ph, label %._crit_edge96

.preheader.lr.ph:                                 ; preds = %1
  %14 = getelementptr inbounds nuw i8, ptr %0, i64 50
  %15 = getelementptr inbounds nuw i8, ptr %0, i64 48
  %16 = getelementptr inbounds nuw i8, ptr %0, i64 52
  %17 = getelementptr inbounds nuw i8, ptr %0, i64 40
  %18 = getelementptr inbounds nuw i8, ptr %0, i64 24
  %19 = getelementptr inbounds nuw i8, ptr %0, i64 32
  br label %.preheader

.preheader:                                       ; preds = %.preheader.lr.ph, %106
  %.095 = phi ptr [ %3, %.preheader.lr.ph ], [ %.1.lcssa, %106 ]
  %.05894 = phi ptr [ %2, %.preheader.lr.ph ], [ %107, %106 ]
  %.05993 = phi i16 [ 0, %.preheader.lr.ph ], [ %.2, %106 ]
  %.06192 = phi i32 [ 0, %.preheader.lr.ph ], [ %.263, %106 ]
  %.06491 = phi i32 [ 128, %.preheader.lr.ph ], [ %.165.lcssa, %106 ]
  %.06690 = phi ptr [ %4, %.preheader.lr.ph ], [ %.4, %106 ]
  %20 = load i32, ptr %.05894, align 8
  %21 = lshr i32 %20, 16
  %22 = load i16, ptr %14, align 2
  %23 = sext i16 %22 to i32
  %24 = add nsw i32 %21, %23
  %25 = load i16, ptr %15, align 8
  %26 = sext i16 %25 to i32
  %27 = add nsw i32 %24, %26
  %28 = load i16, ptr %16, align 4
  %29 = sext i16 %28 to i32
  %30 = add nsw i32 %27, %29
  %31 = sext i32 %30 to i64
  %32 = ptrtoint ptr %.06690 to i64
  %33 = ptrtoint ptr %.095 to i64
  %34 = sub i64 %32, %33
  %35 = add i64 %34, %31
  %36 = sext i32 %.06491 to i64
  %.not83 = icmp slt i64 %35, %36
  br i1 %.not83, label %._crit_edge, label %.lr.ph.preheader

.lr.ph.preheader:                                 ; preds = %.preheader
  %37 = shl i64 %34, 32
  %38 = ashr exact i64 %37, 32
  br label %.lr.ph

.lr.ph:                                           ; preds = %.lr.ph.preheader, %.lr.ph
  %.185 = phi ptr [ %41, %.lr.ph ], [ %.095, %.lr.ph.preheader ]
  %.16584 = phi i32 [ %39, %.lr.ph ], [ %.06491, %.lr.ph.preheader ]
  %39 = shl i32 %.16584, 1
  %40 = sext i32 %39 to i64
  %41 = tail call ptr @repalloc(ptr noundef %.185, i64 noundef %40) #7
  %42 = load i32, ptr %.05894, align 8
  %43 = lshr i32 %42, 16
  %44 = load i16, ptr %14, align 2
  %45 = sext i16 %44 to i32
  %46 = add nsw i32 %43, %45
  %47 = load i16, ptr %15, align 8
  %48 = sext i16 %47 to i32
  %49 = add nsw i32 %46, %48
  %50 = load i16, ptr %16, align 4
  %51 = sext i16 %50 to i32
  %52 = add nsw i32 %49, %51
  %53 = sext i32 %52 to i64
  %54 = add nsw i64 %38, %53
  %.not = icmp slt i64 %54, %40
  br i1 %.not, label %._crit_edge.loopexit, label %.lr.ph, !llvm.loop !24

._crit_edge.loopexit:                             ; preds = %.lr.ph
  %55 = getelementptr inbounds i8, ptr %41, i64 %38
  br label %._crit_edge

._crit_edge:                                      ; preds = %._crit_edge.loopexit, %.preheader
  %.167.lcssa = phi ptr [ %.06690, %.preheader ], [ %55, %._crit_edge.loopexit ]
  %.165.lcssa = phi i32 [ %.06491, %.preheader ], [ %39, %._crit_edge.loopexit ]
  %.1.lcssa = phi ptr [ %.095, %.preheader ], [ %41, %._crit_edge.loopexit ]
  %.lcssa82 = phi i32 [ %20, %.preheader ], [ %42, %._crit_edge.loopexit ]
  %.lcssa = phi i16 [ %28, %.preheader ], [ %50, %._crit_edge.loopexit ]
  %56 = and i32 %.lcssa82, 10
  %or.cond = icmp eq i32 %56, 2
  br i1 %or.cond, label %57, label %101

57:                                               ; preds = %._crit_edge
  %.not73 = icmp eq i16 %.05993, 0
  br i1 %.not73, label %58, label %67

58:                                               ; preds = %57
  %59 = add i32 %.06192, 1
  %60 = icmp sgt i32 %59, 1
  br i1 %60, label %61, label %67

61:                                               ; preds = %58
  %62 = load ptr, ptr %17, align 8
  %63 = sext i16 %.lcssa to i64
  tail call void @llvm.memcpy.p0.p0.i64(ptr align 1 %.167.lcssa, ptr align 1 %62, i64 %63, i1 false)
  %64 = load i16, ptr %16, align 4
  %65 = sext i16 %64 to i64
  %66 = getelementptr inbounds i8, ptr %.167.lcssa, i64 %65
  %.pre = load i32, ptr %.05894, align 8
  br label %67

67:                                               ; preds = %58, %61, %57
  %68 = phi i32 [ %.lcssa82, %57 ], [ %.pre, %61 ], [ %.lcssa82, %58 ]
  %.268 = phi ptr [ %.167.lcssa, %57 ], [ %66, %61 ], [ %.167.lcssa, %58 ]
  %.162 = phi i32 [ %.06192, %57 ], [ %59, %61 ], [ %59, %58 ]
  %69 = and i32 %68, 4
  %.not74 = icmp eq i32 %69, 0
  br i1 %.not74, label %72, label %70

70:                                               ; preds = %67
  store i8 32, ptr %.268, align 1
  %71 = getelementptr inbounds nuw i8, ptr %.268, i64 1
  br label %106

72:                                               ; preds = %67
  %73 = and i32 %68, 16
  %.not75 = icmp eq i32 %73, 0
  br i1 %.not75, label %74, label %106

74:                                               ; preds = %72
  %75 = and i32 %68, 1
  %.not76 = icmp eq i32 %75, 0
  br i1 %.not76, label %83, label %76

76:                                               ; preds = %74
  %77 = load ptr, ptr %18, align 8
  %78 = load i16, ptr %15, align 8
  %79 = sext i16 %78 to i64
  tail call void @llvm.memcpy.p0.p0.i64(ptr align 1 %.268, ptr align 1 %77, i64 %79, i1 false)
  %80 = load i16, ptr %15, align 8
  %81 = sext i16 %80 to i64
  %82 = getelementptr inbounds i8, ptr %.268, i64 %81
  %.pre104 = load i32, ptr %.05894, align 8
  br label %83

83:                                               ; preds = %76, %74
  %84 = phi i32 [ %.pre104, %76 ], [ %68, %74 ]
  %.3 = phi ptr [ %82, %76 ], [ %.268, %74 ]
  %85 = getelementptr inbounds nuw i8, ptr %.05894, i64 8
  %86 = load ptr, ptr %85, align 8
  %87 = lshr i32 %84, 16
  %88 = zext nneg i32 %87 to i64
  tail call void @llvm.memcpy.p0.p0.i64(ptr align 1 %.3, ptr align 1 %86, i64 %88, i1 false)
  %89 = load i32, ptr %.05894, align 8
  %90 = lshr i32 %89, 16
  %91 = zext nneg i32 %90 to i64
  %92 = getelementptr inbounds nuw i8, ptr %.3, i64 %91
  %93 = and i32 %89, 1
  %.not77 = icmp eq i32 %93, 0
  br i1 %.not77, label %106, label %94

94:                                               ; preds = %83
  %95 = load ptr, ptr %19, align 8
  %96 = load i16, ptr %14, align 2
  %97 = sext i16 %96 to i64
  tail call void @llvm.memcpy.p0.p0.i64(ptr align 1 %92, ptr align 1 %95, i64 %97, i1 false)
  %98 = load i16, ptr %14, align 2
  %99 = sext i16 %98 to i64
  %100 = getelementptr inbounds i8, ptr %92, i64 %99
  br label %106

101:                                              ; preds = %._crit_edge
  %102 = and i32 %.lcssa82, 8
  %.not72 = icmp eq i32 %102, 0
  br i1 %.not72, label %103, label %106

103:                                              ; preds = %101
  %104 = getelementptr inbounds nuw i8, ptr %.05894, i64 8
  %105 = load ptr, ptr %104, align 8
  tail call void @pfree(ptr noundef %105) #7
  br label %106

106:                                              ; preds = %101, %103, %70, %83, %94, %72
  %.4 = phi ptr [ %.167.lcssa, %101 ], [ %.167.lcssa, %103 ], [ %71, %70 ], [ %.268, %72 ], [ %100, %94 ], [ %92, %83 ]
  %.263 = phi i32 [ %.06192, %101 ], [ %.06192, %103 ], [ %.162, %70 ], [ %.162, %72 ], [ %.162, %94 ], [ %.162, %83 ]
  %.2 = phi i16 [ %.05993, %101 ], [ 0, %103 ], [ 1, %70 ], [ 1, %72 ], [ 1, %94 ], [ 1, %83 ]
  %107 = getelementptr inbounds nuw i8, ptr %.05894, i64 24
  %108 = load ptr, ptr %0, align 8
  %109 = ptrtoint ptr %107 to i64
  %110 = ptrtoint ptr %108 to i64
  %111 = sub i64 %109, %110
  %112 = sdiv exact i64 %111, 24
  %113 = load i32, ptr %5, align 4
  %114 = sext i32 %113 to i64
  %115 = icmp slt i64 %112, %114
  br i1 %115, label %.preheader, label %._crit_edge96, !llvm.loop !25

._crit_edge96:                                    ; preds = %106, %1
  %.066.lcssa = phi ptr [ %4, %1 ], [ %.4, %106 ]
  %.0.lcssa = phi ptr [ %3, %1 ], [ %.1.lcssa, %106 ]
  %116 = ptrtoint ptr %.066.lcssa to i64
  %117 = ptrtoint ptr %.0.lcssa to i64
  %118 = sub i64 %116, %117
  %119 = trunc i64 %118 to i32
  %120 = shl i32 %119, 2
  store i32 %120, ptr %.0.lcssa, align 4
  ret ptr %.0.lcssa
}